target datalayout = "e-m:e-p270:32:32-p271:32:32-p272:64:64-i64:64-i128:128-f80:128-n8:16:32:64-S128"
target triple = "x86_64-pc-linux-gnu"

%struct.__loadu_ps = type { <4 x float> }
%struct.stbir__contributors = type { i32, i32 }
%struct.__mm_store_ss_struct = type { float }

@STBIR_mask = constant [9 x i32] [i32 0, i32 0, i32 0, i32 -1, i32 -1, i32 -1, i32 0, i32 0, i32 0], align 16

; Function Attrs: alwaysinline nounwind uwtable
define available_externally void @_mm_store_ss(ptr noundef %0, <4 x float> noundef %1) #2 {
  %3 = alloca ptr, align 8
  %4 = alloca <4 x float>, align 16
  store ptr %0, ptr %3, align 8, !tbaa !21
  store <4 x float> %1, ptr %4, align 16, !tbaa !12
  %5 = load <4 x float>, ptr %4, align 16, !tbaa !12
  %6 = extractelement <4 x float> %5, i32 0
  %7 = load ptr, ptr %3, align 8, !tbaa !21
  %8 = getelementptr inbounds nuw %struct.__mm_store_ss_struct, ptr %7, i32 0, i32 0
  store float %6, ptr %8, align 1, !tbaa !12
  ret void
}

; Function Attrs: alwaysinline nounwind uwtable
define available_externally <4 x float> @_mm_add_ss(<4 x float> noundef %0, <4 x float> noundef %1) #2 {
  %3 = alloca <4 x float>, align 16
  %4 = alloca <4 x float>, align 16
  store <4 x float> %0, ptr %3, align 16, !tbaa !12
  store <4 x float> %1, ptr %4, align 16, !tbaa !12
  %5 = load <4 x float>, ptr %4, align 16, !tbaa !12
  %6 = extractelement <4 x float> %5, i32 0
  %7 = load <4 x float>, ptr %3, align 16
  %8 = extractelement <4 x float> %7, i32 0
  %9 = fadd float %8, %6
  %10 = load <4 x float>, ptr %3, align 16
  %11 = insertelement <4 x float> %10, float %9, i32 0
  store <4 x float> %11, ptr %3, align 16
  %12 = load <4 x float>, ptr %3, align 16, !tbaa !12
  ret <4 x float> %12
}

; Function Attrs: alwaysinline nounwind uwtable
define available_externally <4 x float> @_mm_castsi128_ps(<2 x i64> noundef %0) #2 {
  %2 = alloca <2 x i64>, align 16
  store <2 x i64> %0, ptr %2, align 16, !tbaa !12
  %3 = load <2 x i64>, ptr %2, align 16, !tbaa !12
  %4 = bitcast <2 x i64> %3 to <4 x float>
  ret <4 x float> %4
}

; Function Attrs: alwaysinline nounwind uwtable
define available_externally <2 x i64> @_mm_castps_si128(<4 x float> noundef %0) #2 {
  %2 = alloca <4 x float>, align 16
  store <4 x float> %0, ptr %2, align 16, !tbaa !12
  %3 = load <4 x float>, ptr %2, align 16, !tbaa !12
  %4 = bitcast <4 x float> %3 to <2 x i64>
  ret <2 x i64> %4
}

; Function Attrs: alwaysinline nounwind uwtable
define available_externally <4 x float> @_mm_add_ps(<4 x float> noundef %0, <4 x float> noundef %1) #2 {
  %3 = alloca <4 x float>, align 16
  %4 = alloca <4 x float>, align 16
  store <4 x float> %0, ptr %3, align 16, !tbaa !12
  store <4 x float> %1, ptr %4, align 16, !tbaa !12
  %5 = load <4 x float>, ptr %3, align 16, !tbaa !12
  %6 = load <4 x float>, ptr %4, align 16, !tbaa !12
  %7 = fadd <4 x float> %5, %6
  ret <4 x float> %7
}

; Function Attrs: alwaysinline nounwind uwtable
define available_externally <4 x float> @_mm_and_ps(<4 x float> noundef %0, <4 x float> noundef %1) #2 {
  %3 = alloca <4 x float>, align 16
  %4 = alloca <4 x float>, align 16
  store <4 x float> %0, ptr %3, align 16, !tbaa !12
  store <4 x float> %1, ptr %4, align 16, !tbaa !12
  %5 = load <4 x float>, ptr %3, align 16, !tbaa !12
  %6 = bitcast <4 x float> %5 to <4 x i32>
  %7 = load <4 x float>, ptr %4, align 16, !tbaa !12
  %8 = bitcast <4 x float> %7 to <4 x i32>
  %9 = and <4 x i32> %6, %8
  %10 = bitcast <4 x i32> %9 to <4 x float>
  ret <4 x float> %10
}

; Function Attrs: alwaysinline nounwind uwtable
define available_externally <4 x float> @_mm_mul_ps(<4 x float> noundef %0, <4 x float> noundef %1) #2 {
  %3 = alloca <4 x float>, align 16
  %4 = alloca <4 x float>, align 16
  store <4 x float> %0, ptr %3, align 16, !tbaa !12
  store <4 x float> %1, ptr %4, align 16, !tbaa !12
  %5 = load <4 x float>, ptr %3, align 16, !tbaa !12
  %6 = load <4 x float>, ptr %4, align 16, !tbaa !12
  %7 = fmul <4 x float> %5, %6
  ret <4 x float> %7
}

; Function Attrs: alwaysinline nounwind uwtable
define available_externally <4 x float> @_mm_loadu_ps(ptr noundef %0) #2 {
  %2 = alloca ptr, align 8
  store ptr %0, ptr %2, align 8, !tbaa !21
  %3 = load ptr, ptr %2, align 8, !tbaa !21
  %4 = getelementptr inbounds nuw %struct.__loadu_ps, ptr %3, i32 0, i32 0
  %5 = load <4 x float>, ptr %4, align 1, !tbaa !12
  ret <4 x float> %5
}

; Function Attrs: nounwind uwtable
define void @stbir__horizontal_gather_1_channels_with_7_coeffs(ptr noundef %0, i32 noundef %1, ptr noundef %2, ptr noundef %3, ptr noundef %4, i32 noundef %5) #0 {
  %7 = alloca ptr, align 8
  %8 = alloca i32, align 4
  %9 = alloca ptr, align 8
  %10 = alloca ptr, align 8
  %11 = alloca ptr, align 8
  %12 = alloca i32, align 4
  %13 = alloca ptr, align 8
  %14 = alloca ptr, align 8
  %15 = alloca <4 x float>, align 16
  %16 = alloca ptr, align 8
  %17 = alloca ptr, align 8
  %18 = alloca <4 x float>, align 16
  %19 = alloca <4 x float>, align 16
  store ptr %0, ptr %7, align 8, !tbaa !21
  store i32 %1, ptr %8, align 4, !tbaa !26
  store ptr %2, ptr %9, align 8, !tbaa !21
  store ptr %3, ptr %10, align 8, !tbaa !3
  store ptr %4, ptr %11, align 8, !tbaa !21
  store i32 %5, ptr %12, align 4, !tbaa !26
  call void @llvm.lifetime.start.p0(i64 8, ptr %13) #12
  %20 = load ptr, ptr %7, align 8, !tbaa !21
  %21 = load i32, ptr %8, align 4, !tbaa !26
  %22 = mul i32 %21, 1
  %23 = zext i32 %22 to i64
  %24 = getelementptr inbounds nuw float, ptr %20, i64 %23
  store ptr %24, ptr %13, align 8, !tbaa !21
  call void @llvm.lifetime.start.p0(i64 8, ptr %14) #12
  %25 = load ptr, ptr %7, align 8, !tbaa !21
  store ptr %25, ptr %14, align 8, !tbaa !21
  call void @llvm.lifetime.start.p0(i64 16, ptr %15) #12
  %26 = call <4 x float> @_mm_loadu_ps(ptr noundef getelementptr inbounds (i32, ptr @STBIR_mask, i64 3))
  store <4 x float> %26, ptr %15, align 16, !tbaa !12
  br label %27

27:                                               ; preds = %84, %6
  call void @llvm.lifetime.start.p0(i64 8, ptr %16) #12
  %28 = load ptr, ptr %9, align 8, !tbaa !21
  %29 = load ptr, ptr %10, align 8, !tbaa !3
  %30 = getelementptr inbounds nuw %struct.stbir__contributors, ptr %29, i32 0, i32 0
  %31 = load i32, ptr %30, align 4, !tbaa !41
  %32 = mul nsw i32 %31, 1
  %33 = sext i32 %32 to i64
  %34 = getelementptr inbounds float, ptr %28, i64 %33
  store ptr %34, ptr %16, align 8, !tbaa !21
  call void @llvm.lifetime.start.p0(i64 8, ptr %17) #12
  %35 = load ptr, ptr %11, align 8, !tbaa !21
  store ptr %35, ptr %17, align 8, !tbaa !21
  call void @llvm.lifetime.start.p0(i64 16, ptr %18) #12
  call void @llvm.lifetime.start.p0(i64 16, ptr %19) #12
  %36 = load ptr, ptr %16, align 8, !tbaa !21
  call void asm sideeffect "", "r,~{dirflag},~{fpsr},~{flags}"(ptr %36) #12, !srcloc !551
  %37 = load ptr, ptr %17, align 8, !tbaa !21
  %38 = call <4 x float> @_mm_loadu_ps(ptr noundef %37)
  store <4 x float> %38, ptr %19, align 16, !tbaa !12
  %39 = load <4 x float>, ptr %19, align 16, !tbaa !12
  %40 = load ptr, ptr %16, align 8, !tbaa !21
  %41 = call <4 x float> @_mm_loadu_ps(ptr noundef %40)
  %42 = call <4 x float> @_mm_mul_ps(<4 x float> noundef %39, <4 x float> noundef %41)
  store <4 x float> %42, ptr %18, align 16, !tbaa !12
  %43 = load ptr, ptr %17, align 8, !tbaa !21
  %44 = getelementptr inbounds float, ptr %43, i64 4
  %45 = call <4 x float> @_mm_loadu_ps(ptr noundef %44)
  store <4 x float> %45, ptr %19, align 16, !tbaa !12
  %46 = load <4 x float>, ptr %19, align 16, !tbaa !12
  %47 = load <4 x float>, ptr %15, align 16, !tbaa !12
  %48 = call <4 x float> @_mm_and_ps(<4 x float> noundef %46, <4 x float> noundef %47)
  store <4 x float> %48, ptr %19, align 16, !tbaa !12
  %49 = load <4 x float>, ptr %18, align 16, !tbaa !12
  %50 = load <4 x float>, ptr %19, align 16, !tbaa !12
  %51 = load ptr, ptr %16, align 8, !tbaa !21
  %52 = getelementptr inbounds float, ptr %51, i64 4
  %53 = call <4 x float> @_mm_loadu_ps(ptr noundef %52)
  %54 = call <4 x float> @_mm_mul_ps(<4 x float> noundef %50, <4 x float> noundef %53)
  %55 = call <4 x float> @_mm_add_ps(<4 x float> noundef %49, <4 x float> noundef %54)
  store <4 x float> %55, ptr %18, align 16, !tbaa !12
  %56 = load <4 x float>, ptr %18, align 16, !tbaa !12
  %57 = call <2 x i64> @_mm_castps_si128(<4 x float> noundef %56)
  %58 = bitcast <2 x i64> %57 to <4 x i32>
  %59 = shufflevector <4 x i32> %58, <4 x i32> poison, <4 x i32> <i32 2, i32 3, i32 0, i32 1>
  %60 = bitcast <4 x i32> %59 to <2 x i64>
  %61 = call <4 x float> @_mm_castsi128_ps(<2 x i64> noundef %60)
  store <4 x float> %61, ptr %19, align 16, !tbaa !12
  %62 = load <4 x float>, ptr %18, align 16, !tbaa !12
  %63 = load <4 x float>, ptr %19, align 16, !tbaa !12
  %64 = call <4 x float> @_mm_add_ps(<4 x float> noundef %62, <4 x float> noundef %63)
  store <4 x float> %64, ptr %18, align 16, !tbaa !12
  %65 = load <4 x float>, ptr %18, align 16, !tbaa !12
  %66 = call <2 x i64> @_mm_castps_si128(<4 x float> noundef %65)
  %67 = bitcast <2 x i64> %66 to <4 x i32>
  %68 = shufflevector <4 x i32> %67, <4 x i32> poison, <4 x i32> <i32 1, i32 2, i32 3, i32 0>
  %69 = bitcast <4 x i32> %68 to <2 x i64>
  %70 = call <4 x float> @_mm_castsi128_ps(<2 x i64> noundef %69)
  store <4 x float> %70, ptr %19, align 16, !tbaa !12
  %71 = load <4 x float>, ptr %18, align 16, !tbaa !12
  %72 = load <4 x float>, ptr %19, align 16, !tbaa !12
  %73 = call <4 x float> @_mm_add_ss(<4 x float> noundef %71, <4 x float> noundef %72)
  store <4 x float> %73, ptr %18, align 16, !tbaa !12
  %74 = load ptr, ptr %14, align 8, !tbaa !21
  %75 = load <4 x float>, ptr %18, align 16, !tbaa !12
  call void @_mm_store_ss(ptr noundef %74, <4 x float> noundef %75)
  %76 = load i32, ptr %12, align 4, !tbaa !26
  %77 = load ptr, ptr %11, align 8, !tbaa !21
  %78 = sext i32 %76 to i64
  %79 = getelementptr inbounds float, ptr %77, i64 %78
  store ptr %79, ptr %11, align 8, !tbaa !21
  %80 = load ptr, ptr %10, align 8, !tbaa !3
  %81 = getelementptr inbounds nuw %struct.stbir__contributors, ptr %80, i32 1
  store ptr %81, ptr %10, align 8, !tbaa !3
  %82 = load ptr, ptr %14, align 8, !tbaa !21
  %83 = getelementptr inbounds float, ptr %82, i64 1
  store ptr %83, ptr %14, align 8, !tbaa !21
  call void @llvm.lifetime.end.p0(i64 16, ptr %19) #12
  call void @llvm.lifetime.end.p0(i64 16, ptr %18) #12
  call void @llvm.lifetime.end.p0(i64 8, ptr %17) #12
  call void @llvm.lifetime.end.p0(i64 8, ptr %16) #12
  br label %84

84:                                               ; preds = %27
  %85 = load ptr, ptr %14, align 8, !tbaa !21
  %86 = load ptr, ptr %13, align 8, !tbaa !21
  %87 = icmp ult ptr %85, %86
  br i1 %87, label %27, label %88, !llvm.loop !552

88:                                               ; preds = %84
  call void @llvm.lifetime.end.p0(i64 16, ptr %15) #12
  call void @llvm.lifetime.end.p0(i64 8, ptr %14) #12
  call void @llvm.lifetime.end.p0(i64 8, ptr %13) #12
  ret void
}