; Function Attrs: nounwind uwtable
define void @stbir__horizontal_gather_1_channels_with_7_coeffs(ptr noundef writeonly captures(address) %0, i32 noundef %1, ptr noundef %2, ptr noundef readonly captures(none) %3, ptr noundef readonly captures(none) %4, i32 noundef %5) #0 {
  %7 = zext i32 %1 to i64
  %8 = getelementptr inbounds nuw float, ptr %0, i64 %7
  %9 = sext i32 %5 to i64
  br label %10

10:                                               ; preds = %10, %6
  %.030 = phi ptr [ %0, %6 ], [ %31, %10 ]
  %.029 = phi ptr [ %4, %6 ], [ %29, %10 ]
  %.0 = phi ptr [ %3, %6 ], [ %30, %10 ]
  %11 = load i32, ptr %.0, align 4, !tbaa !34
  %12 = sext i32 %11 to i64
  %13 = getelementptr inbounds float, ptr %2, i64 %12
  tail call void asm sideeffect "", "r,~{dirflag},~{fpsr},~{flags}"(ptr %13) #24, !srcloc !475
  %14 = load <4 x float>, ptr %.029, align 1, !tbaa !4
  %15 = load <4 x float>, ptr %13, align 1, !tbaa !4
  %16 = fmul <4 x float> %14, %15
  %17 = getelementptr inbounds nuw i8, ptr %.029, i64 16
  %18 = load <4 x i32>, ptr %17, align 1, !tbaa !4
  %19 = and <4 x i32> %18, <i32 -1, i32 -1, i32 -1, i32 0>
  %20 = bitcast <4 x i32> %19 to <4 x float>
  %21 = getelementptr inbounds nuw i8, ptr %13, i64 16
  %22 = load <4 x float>, ptr %21, align 1, !tbaa !4
  %23 = fmul <4 x float> %22, %20
  %24 = fadd <4 x float> %16, %23
  %25 = shufflevector <4 x float> %24, <4 x float> poison, <4 x i32> <i32 2, i32 3, i32 poison, i32 poison>
  %26 = fadd <4 x float> %24, %25
  %shift = shufflevector <4 x float> %26, <4 x float> poison, <4 x i32> <i32 1, i32 poison, i32 poison, i32 poison>
  %27 = fadd <4 x float> %26, %shift
  %28 = extractelement <4 x float> %27, i64 0
  store float %28, ptr %.030, align 1, !tbaa !4
  %29 = getelementptr inbounds float, ptr %.029, i64 %9
  %30 = getelementptr inbounds nuw i8, ptr %.0, i64 8
  %31 = getelementptr inbounds nuw i8, ptr %.030, i64 4
  %32 = icmp ult ptr %31, %8
  br i1 %32, label %10, label %33, !llvm.loop !476

33:                                               ; preds = %10
  ret void
}